; Function Attrs: mustprogress uwtable
define hidden void @_ZN32pxrInternal_v0_24__pxrReserved__12PlugRegistryC2Ev(ptr noundef nonnull align 8 dereferenceable(104) %0) unnamed_addr #0 align 2 personality ptr @__gxx_personality_v0 {
  %2 = alloca %"struct.pxrInternal_v0_24__pxrReserved__::Tf_DiagnosticHelper", align 8
  store ptr null, ptr %0, align 8
  %3 = getelementptr inbounds nuw i8, ptr %0, i64 8
  %4 = getelementptr inbounds i8, ptr %0, i64 40
  store i64 0, ptr %4, align 8
  %5 = getelementptr inbounds i8, ptr %0, i64 56
  store ptr %5, ptr %3, align 8
  %6 = getelementptr inbounds i8, ptr %0, i64 16
  store i64 1, ptr %6, align 8
  %7 = getelementptr inbounds i8, ptr %0, i64 24
  tail call void @llvm.memset.p0.i64(ptr noundef nonnull align 8 dereferenceable(16) %7, i8 0, i64 16, i1 false)
  store float 1.000000e+00, ptr %4, align 8
  %8 = getelementptr inbounds i8, ptr %0, i64 48
  tail call void @llvm.memset.p0.i64(ptr noundef nonnull align 8 dereferenceable(56) %8, i8 0, i64 56, i1 false)
  call void @llvm.lifetime.start.p0(i64 48, ptr nonnull %2)
  %9 = ptrtoint ptr %0 to i64
  %10 = atomicrmw xchg ptr @_ZN32pxrInternal_v0_24__pxrReserved__11TfSingletonINS_12PlugRegistryEE9_instanceE, i64 %9 seq_cst, align 8
  %.not.i = icmp eq i64 %10, 0
  br i1 %.not.i, label %13, label %11

11:                                               ; preds = %1
  store ptr @.str, ptr %2, align 8
  %.sroa.2.0..sroa_idx.i = getelementptr inbounds i8, ptr %2, i64 8
  store ptr @__func__._ZN32pxrInternal_v0_24__pxrReserved__11TfSingletonINS_12PlugRegistryEE22SetInstanceConstructedERS1_, ptr %.sroa.2.0..sroa_idx.i, align 8
  %.sroa.3.0..sroa_idx.i = getelementptr inbounds i8, ptr %2, i64 16
  store i64 54, ptr %.sroa.3.0..sroa_idx.i, align 8
  %.sroa.4.0..sroa_idx.i = getelementptr inbounds i8, ptr %2, i64 24
  store ptr @__PRETTY_FUNCTION__._ZN32pxrInternal_v0_24__pxrReserved__11TfSingletonINS_12PlugRegistryEE22SetInstanceConstructedERS1_, ptr %.sroa.4.0..sroa_idx.i, align 8
  %.sroa.5.0..sroa_idx.i = getelementptr inbounds i8, ptr %2, i64 32
  store i8 0, ptr %.sroa.5.0..sroa_idx.i, align 8
  %12 = getelementptr inbounds nuw i8, ptr %2, i64 40
  store i32 4, ptr %12, align 8
  invoke void (ptr, ptr, ...) @_ZNK32pxrInternal_v0_24__pxrReserved__19Tf_DiagnosticHelper15IssueFatalErrorEPKcz(ptr noundef nonnull align 8 dereferenceable(44) %2, ptr noundef nonnull @.str.1)
          to label %13 unwind label %14

13:                                               ; preds = %1, %11
  call void @llvm.lifetime.end.p0(i64 48, ptr nonnull %2)
  ret void

14:                                               ; preds = %11
  %15 = landingpad { ptr, i32 }
          cleanup
  call void @_ZN32pxrInternal_v0_24__pxrReserved__9TfHashSetINSt7__cxx1112basic_stringIcSt11char_traitsIcESaIcEEENS_6TfHashESt8equal_toIS6_ESaIS6_EED2Ev(ptr noundef nonnull align 8 dereferenceable(56) %3) #15
  call void @_ZN32pxrInternal_v0_24__pxrReserved__10TfWeakBaseD2Ev(ptr noundef nonnull align 8 dereferenceable(8) %0) #15
  resume { ptr, i32 } %15
}